; Function Attrs: nounwind uwtable
define ptr @files_fget(ptr noundef readonly captures(none) %0, i32 noundef %1) local_unnamed_addr #1 {
  %3 = alloca i64, align 8
  %4 = sdiv i32 %1, 8
  %5 = srem i32 %1, 8
  call void @llvm.lifetime.start.p0(i64 8, ptr nonnull %3)
  call void asm sideeffect "\09pushfq\0A\09popq $0\0A", "=*rm,~{memory},~{dirflag},~{fpsr},~{flags}"(ptr nonnull elementtype(i64) %3) #10, !srcloc !9
  %6 = load i64, ptr %3, align 8
  call void @llvm.lifetime.end.p0(i64 8, ptr nonnull %3)
  call void asm sideeffect "cli", "~{memory},~{dirflag},~{fpsr},~{flags}"() #10, !srcloc !10
  %7 = getelementptr inbounds nuw i8, ptr %0, i64 8
  %8 = load ptr, ptr %7, align 8
  %9 = sext i32 %4 to i64
  %10 = getelementptr inbounds ptr, ptr %8, i64 %9
  %11 = load ptr, ptr %10, align 8
  %12 = and i64 %6, 512
  %.not.i.i = icmp eq i64 %12, 0
  br i1 %.not.i.i, label %files_fget_by_index.exit, label %13

13:                                               ; preds = %2
  call void asm sideeffect "sti", "~{memory},~{dirflag},~{fpsr},~{flags}"() #10, !srcloc !11
  br label %files_fget_by_index.exit

files_fget_by_index.exit:                         ; preds = %2, %13
  %14 = sext i32 %5 to i64
  %15 = getelementptr inbounds %struct.file, ptr %11, i64 %14
  ret ptr %15
}